; Function Attrs: nounwind uwtable
define internal noundef i32 @object_format_advertise(ptr noundef readonly captures(none) %0, ptr noundef %1) #0 {
  %.not = icmp eq ptr %1, null
  br i1 %.not, label %8, label %3

3:                                                ; preds = %2
  %4 = getelementptr inbounds nuw i8, ptr %0, i64 400
  %5 = load ptr, ptr %4, align 8, !tbaa !30
  %6 = load ptr, ptr %5, align 8, !tbaa !48
  %7 = tail call i64 @strlen(ptr noundef nonnull dereferenceable(1) %6) #8
  tail call void @strbuf_add(ptr noundef nonnull %1, ptr noundef nonnull %6, i64 noundef %7) #7
  br label %8

8:                                                ; preds = %3, %2
  ret i32 1
}